target datalayout = "e-m:e-p270:32:32-p271:32:32-p272:64:64-i64:64-i128:128-f80:128-n8:16:32:64-S128"
target triple = "x86_64-pc-linux-gnu"

%struct.IndexVacuumInfo = type { ptr, ptr, i8, i8, i8, i32, double, ptr }
%struct.IndexBulkDeleteResult = type { i32, i8, double, double, i32, i32, i32 }

; Function Attrs: nounwind uwtable
define dso_local ptr @gistvacuumcleanup(ptr noundef %0, ptr noundef %1) #0 {
  %3 = alloca ptr, align 8
  %4 = alloca ptr, align 8
  %5 = alloca ptr, align 8
  store ptr %0, ptr %4, align 8
  store ptr %1, ptr %5, align 8
  %6 = load ptr, ptr %4, align 8
  %7 = getelementptr inbounds nuw %struct.IndexVacuumInfo, ptr %6, i32 0, i32 2
  %8 = load i8, ptr %7, align 8, !range !4, !noundef !5
  %9 = trunc i8 %8 to i1
  br i1 %9, label %10, label %12

10:                                               ; preds = %2
  %11 = load ptr, ptr %5, align 8
  store ptr %11, ptr %3, align 8
  br label %41

12:                                               ; preds = %2
  %13 = load ptr, ptr %5, align 8
  %14 = icmp eq ptr %13, null
  br i1 %14, label %15, label %19

15:                                               ; preds = %12
  %16 = call ptr @palloc0(i64 noundef 40)
  store ptr %16, ptr %5, align 8
  %17 = load ptr, ptr %4, align 8
  %18 = load ptr, ptr %5, align 8
  call void @gistvacuumscan(ptr noundef %17, ptr noundef %18, ptr noundef null, ptr noundef null)
  br label %19

19:                                               ; preds = %15, %12
  %20 = load ptr, ptr %4, align 8
  %21 = getelementptr inbounds nuw %struct.IndexVacuumInfo, ptr %20, i32 0, i32 4
  %22 = load i8, ptr %21, align 2, !range !4, !noundef !5
  %23 = trunc i8 %22 to i1
  br i1 %23, label %39, label %24

24:                                               ; preds = %19
  %25 = load ptr, ptr %5, align 8
  %26 = getelementptr inbounds nuw %struct.IndexBulkDeleteResult, ptr %25, i32 0, i32 2
  %27 = load double, ptr %26, align 8
  %28 = load ptr, ptr %4, align 8
  %29 = getelementptr inbounds nuw %struct.IndexVacuumInfo, ptr %28, i32 0, i32 6
  %30 = load double, ptr %29, align 8
  %31 = fcmp ogt double %27, %30
  br i1 %31, label %32, label %38

32:                                               ; preds = %24
  %33 = load ptr, ptr %4, align 8
  %34 = getelementptr inbounds nuw %struct.IndexVacuumInfo, ptr %33, i32 0, i32 6
  %35 = load double, ptr %34, align 8
  %36 = load ptr, ptr %5, align 8
  %37 = getelementptr inbounds nuw %struct.IndexBulkDeleteResult, ptr %36, i32 0, i32 2
  store double %35, ptr %37, align 8
  br label %38

38:                                               ; preds = %32, %24
  br label %39

39:                                               ; preds = %38, %19
  %40 = load ptr, ptr %5, align 8
  store ptr %40, ptr %3, align 8
  br label %41

41:                                               ; preds = %39, %10
  %42 = load ptr, ptr %3, align 8
  ret ptr %42
}