; Function Attrs: nounwind uwtable
define dso_local noundef ptr @gistvacuumcleanup(ptr noundef readonly captures(none) %0, ptr noundef captures(address_is_null, ret: address, provenance) %1) local_unnamed_addr #0 {
  %3 = getelementptr inbounds nuw i8, ptr %0, i64 16
  %4 = load i8, ptr %3, align 8, !range !4, !noundef !5
  %5 = trunc nuw i8 %4 to i1
  br i1 %5, label %21, label %6

6:                                                ; preds = %2
  %7 = icmp eq ptr %1, null
  br i1 %7, label %8, label %10

8:                                                ; preds = %6
  %9 = tail call ptr @palloc0(i64 noundef 40) #4
  tail call fastcc void @gistvacuumscan(ptr noundef nonnull %0, ptr noundef %9, ptr noundef null, ptr noundef null)
  br label %10

10:                                               ; preds = %8, %6
  %.0 = phi ptr [ %9, %8 ], [ %1, %6 ]
  %11 = getelementptr inbounds nuw i8, ptr %0, i64 18
  %12 = load i8, ptr %11, align 2, !range !4, !noundef !5
  %13 = trunc nuw i8 %12 to i1
  br i1 %13, label %21, label %14

14:                                               ; preds = %10
  %15 = getelementptr inbounds nuw i8, ptr %.0, i64 8
  %16 = load double, ptr %15, align 8
  %17 = getelementptr inbounds nuw i8, ptr %0, i64 24
  %18 = load double, ptr %17, align 8
  %19 = fcmp ogt double %16, %18
  br i1 %19, label %20, label %21

20:                                               ; preds = %14
  store double %18, ptr %15, align 8
  br label %21

21:                                               ; preds = %10, %20, %14, %2
  %.012 = phi ptr [ %1, %2 ], [ %.0, %14 ], [ %.0, %20 ], [ %.0, %10 ]
  ret ptr %.012
}